target datalayout = "e-m:e-p270:32:32-p271:32:32-p272:64:64-i64:64-f80:128-n8:16:32:64-S128"
target triple = "x86_64-pc-linux-gnu"

@.str = private unnamed_addr constant [4 x i8] c"%d,\00", align 1
@.str.1 = private unnamed_addr constant [3 x i8] c"%d\00", align 1

; Function Attrs: noinline nounwind uwtable
define dso_local i32 @main() #0 {
  %1 = alloca i32, align 4
  %2 = alloca [30000 x i8], align 16
  %3 = alloca [300 x i32], align 16
  %4 = alloca [300 x i32], align 16
  %5 = alloca i32, align 4
  %6 = alloca i32, align 4
  %7 = alloca i32, align 4
  %8 = alloca i32, align 4
  %9 = alloca i32, align 4
  %10 = alloca i32, align 4
  %11 = alloca i32, align 4
  %12 = alloca i8*, align 8
  %13 = alloca i64, align 8
  %14 = alloca i32, align 4
  %15 = alloca i32, align 4
  store i32 0, i32* %1, align 4
  store i32 1, i32* %5, align 4
  store i32 0, i32* %6, align 4
  store i32 1, i32* %8, align 4
  %16 = getelementptr inbounds [30000 x i8], [30000 x i8]* %2, i64 0, i64 0
  %17 = call i32 (i8*, ...) bitcast (i32 (...)* @gets to i32 (i8*, ...)*)(i8* %16)
  %18 = getelementptr inbounds [300 x i32], [300 x i32]* %3, i64 0, i64 0
  store i32 0, i32* %18, align 16
  store i32 0, i32* %9, align 4
  br label %19

19:                                               ; preds = %34, %0
  %20 = load i32, i32* %9, align 4
  %21 = sext i32 %20 to i64
  %22 = getelementptr inbounds [30000 x i8], [30000 x i8]* %2, i64 0, i64 0
  %23 = call i64 @strlen(i8* %22) #4
  %24 = icmp ult i64 %21, %23
  br i1 %24, label %25, label %37

25:                                               ; preds = %19
  %26 = load i32, i32* %9, align 4
  %27 = sext i32 %26 to i64
  %28 = getelementptr inbounds [30000 x i8], [30000 x i8]* %2, i64 0, i64 %27
  %29 = load i8, i8* %28, align 1
  %30 = sext i8 %29 to i32
  %31 = icmp eq i32 %30, 32
  br i1 %31, label %32, label %33

32:                                               ; preds = %25
  store i32 0, i32* %8, align 4
  br label %37

33:                                               ; preds = %25
  br label %34

34:                                               ; preds = %33
  %35 = load i32, i32* %9, align 4
  %36 = add nsw i32 %35, 1
  store i32 %36, i32* %9, align 4
  br label %19

37:                                               ; preds = %32, %19
  %38 = load i32, i32* %8, align 4
  %39 = icmp eq i32 %38, 0
  br i1 %39, label %40, label %164

40:                                               ; preds = %37
  store i32 1, i32* %10, align 4
  br label %41

41:                                               ; preds = %70, %40
  %42 = load i32, i32* %10, align 4
  %43 = sext i32 %42 to i64
  %44 = getelementptr inbounds [30000 x i8], [30000 x i8]* %2, i64 0, i64 0
  %45 = call i64 @strlen(i8* %44) #4
  %46 = icmp ult i64 %43, %45
  br i1 %46, label %47, label %73

47:                                               ; preds = %41
  %48 = load i32, i32* %10, align 4
  %49 = sext i32 %48 to i64
  %50 = getelementptr inbounds [30000 x i8], [30000 x i8]* %2, i64 0, i64 %49
  %51 = load i8, i8* %50, align 1
  %52 = sext i8 %51 to i32
  %53 = icmp ne i32 %52, 32
  br i1 %53, label %54, label %69

54:                                               ; preds = %47
  %55 = load i32, i32* %10, align 4
  %56 = sub nsw i32 %55, 1
  %57 = sext i32 %56 to i64
  %58 = getelementptr inbounds [30000 x i8], [30000 x i8]* %2, i64 0, i64 %57
  %59 = load i8, i8* %58, align 1
  %60 = sext i8 %59 to i32
  %61 = icmp eq i32 %60, 32
  br i1 %61, label %62, label %69

62:                                               ; preds = %54
  %63 = load i32, i32* %10, align 4
  %64 = load i32, i32* %5, align 4
  %65 = sext i32 %64 to i64
  %66 = getelementptr inbounds [300 x i32], [300 x i32]* %3, i64 0, i64 %65
  store i32 %63, i32* %66, align 4
  %67 = load i32, i32* %5, align 4
  %68 = add nsw i32 %67, 1
  store i32 %68, i32* %5, align 4
  br label %69

69:                                               ; preds = %62, %54, %47
  br label %70

70:                                               ; preds = %69
  %71 = load i32, i32* %10, align 4
  %72 = add nsw i32 %71, 1
  store i32 %72, i32* %10, align 4
  br label %41

73:                                               ; preds = %41
  %74 = getelementptr inbounds [30000 x i8], [30000 x i8]* %2, i64 0, i64 0
  %75 = call i64 @strlen(i8* %74) #4
  %76 = sub i64 %75, 1
  %77 = trunc i64 %76 to i32
  %78 = load i32, i32* %5, align 4
  %79 = sub nsw i32 %78, 1
  %80 = sext i32 %79 to i64
  %81 = getelementptr inbounds [300 x i32], [300 x i32]* %4, i64 0, i64 %80
  store i32 %77, i32* %81, align 4
  store i32 0, i32* %11, align 4
  br label %82

82:                                               ; preds = %111, %73
  %83 = load i32, i32* %11, align 4
  %84 = sext i32 %83 to i64
  %85 = getelementptr inbounds [30000 x i8], [30000 x i8]* %2, i64 0, i64 0
  %86 = call i64 @strlen(i8* %85) #4
  %87 = icmp ult i64 %84, %86
  br i1 %87, label %88, label %114

88:                                               ; preds = %82
  %89 = load i32, i32* %11, align 4
  %90 = sext i32 %89 to i64
  %91 = getelementptr inbounds [30000 x i8], [30000 x i8]* %2, i64 0, i64 %90
  %92 = load i8, i8* %91, align 1
  %93 = sext i8 %92 to i32
  %94 = icmp ne i32 %93, 32
  br i1 %94, label %95, label %110

95:                                               ; preds = %88
  %96 = load i32, i32* %11, align 4
  %97 = add nsw i32 %96, 1
  %98 = sext i32 %97 to i64
  %99 = getelementptr inbounds [30000 x i8], [30000 x i8]* %2, i64 0, i64 %98
  %100 = load i8, i8* %99, align 1
  %101 = sext i8 %100 to i32
  %102 = icmp eq i32 %101, 32
  br i1 %102, label %103, label %110

103:                                              ; preds = %95
  %104 = load i32, i32* %11, align 4
  %105 = load i32, i32* %6, align 4
  %106 = sext i32 %105 to i64
  %107 = getelementptr inbounds [300 x i32], [300 x i32]* %4, i64 0, i64 %106
  store i32 %104, i32* %107, align 4
  %108 = load i32, i32* %6, align 4
  %109 = add nsw i32 %108, 1
  store i32 %109, i32* %6, align 4
  br label %110

110:                                              ; preds = %103, %95, %88
  br label %111

111:                                              ; preds = %110
  %112 = load i32, i32* %11, align 4
  %113 = add nsw i32 %112, 1
  store i32 %113, i32* %11, align 4
  br label %82

114:                                              ; preds = %82
  %115 = load i32, i32* %5, align 4
  %116 = zext i32 %115 to i64
  %117 = call i8* @llvm.stacksave()
  store i8* %117, i8** %12, align 8
  %118 = alloca i32, i64 %116, align 16
  store i64 %116, i64* %13, align 8
  store i32 0, i32* %14, align 4
  br label %119

119:                                              ; preds = %137, %114
  %120 = load i32, i32* %14, align 4
  %121 = load i32, i32* %5, align 4
  %122 = icmp slt i32 %120, %121
  br i1 %122, label %123, label %140

123:                                              ; preds = %119
  %124 = load i32, i32* %14, align 4
  %125 = sext i32 %124 to i64
  %126 = getelementptr inbounds [300 x i32], [300 x i32]* %4, i64 0, i64 %125
  %127 = load i32, i32* %126, align 4
  %128 = load i32, i32* %14, align 4
  %129 = sext i32 %128 to i64
  %130 = getelementptr inbounds [300 x i32], [300 x i32]* %3, i64 0, i64 %129
  %131 = load i32, i32* %130, align 4
  %132 = sub nsw i32 %127, %131
  %133 = add nsw i32 %132, 1
  %134 = load i32, i32* %14, align 4
  %135 = sext i32 %134 to i64
  %136 = getelementptr inbounds i32, i32* %118, i64 %135
  store i32 %133, i32* %136, align 4
  br label %137

137:                                              ; preds = %123
  %138 = load i32, i32* %14, align 4
  %139 = add nsw i32 %138, 1
  store i32 %139, i32* %14, align 4
  br label %119

140:                                              ; preds = %119
  store i32 0, i32* %15, align 4
  br label %141

141:                                              ; preds = %153, %140
  %142 = load i32, i32* %15, align 4
  %143 = load i32, i32* %5, align 4
  %144 = sub nsw i32 %143, 1
  %145 = icmp slt i32 %142, %144
  br i1 %145, label %146, label %156

146:                                              ; preds = %141
  %147 = load i32, i32* %15, align 4
  %148 = sext i32 %147 to i64
  %149 = getelementptr inbounds i32, i32* %118, i64 %148
  %150 = load i32, i32* %149, align 4
  %151 = call i32 (i8*, ...) @printf(i8* getelementptr inbounds ([4 x i8], [4 x i8]* @.str, i64 0, i64 0), i32 %150)
  %152 = load i32, i32* %15, align 4
  store i32 %152, i32* %7, align 4
  br label %153

153:                                              ; preds = %146
  %154 = load i32, i32* %15, align 4
  %155 = add nsw i32 %154, 1
  store i32 %155, i32* %15, align 4
  br label %141

156:                                              ; preds = %141
  %157 = load i32, i32* %7, align 4
  %158 = add nsw i32 %157, 1
  %159 = sext i32 %158 to i64
  %160 = getelementptr inbounds i32, i32* %118, i64 %159
  %161 = load i32, i32* %160, align 4
  %162 = call i32 (i8*, ...) @printf(i8* getelementptr inbounds ([3 x i8], [3 x i8]* @.str.1, i64 0, i64 0), i32 %161)
  %163 = load i8*, i8** %12, align 8
  call void @llvm.stackrestore(i8* %163)
  br label %164

164:                                              ; preds = %156, %37
  %165 = load i32, i32* %8, align 4
  %166 = icmp eq i32 %165, 1
  br i1 %166, label %167, label %171

167:                                              ; preds = %164
  %168 = getelementptr inbounds [30000 x i8], [30000 x i8]* %2, i64 0, i64 0
  %169 = call i64 @strlen(i8* %168) #4
  %170 = call i32 (i8*, ...) @printf(i8* getelementptr inbounds ([3 x i8], [3 x i8]* @.str.1, i64 0, i64 0), i64 %169)
  br label %171

171:                                              ; preds = %167, %164
  ret i32 0
}